target datalayout = "e-m:e-p270:32:32-p271:32:32-p272:64:64-i64:64-i128:128-f80:128-n8:16:32:64-S128"
target triple = "x86_64-pc-linux-gnu"

%struct.pm_encoding_t = type { ptr, ptr, ptr, ptr, ptr, i8 }

; Function Attrs: nounwind sspstrong uwtable
define hidden i32 @pm_slice_type(ptr noundef %0, i64 noundef %1, ptr noundef %2) #0 {
  %4 = alloca i32, align 4
  %5 = alloca ptr, align 8
  %6 = alloca i64, align 8
  %7 = alloca ptr, align 8
  %8 = alloca ptr, align 8
  %9 = alloca i32, align 4
  %10 = alloca i64, align 8
  %11 = alloca ptr, align 8
  %12 = alloca i32, align 4
  store ptr %0, ptr %5, align 8, !tbaa !12
  store i64 %1, ptr %6, align 8, !tbaa !14
  store ptr %2, ptr %7, align 8, !tbaa !12
  call void @llvm.lifetime.start.p0(i64 8, ptr %8) #15
  %13 = load ptr, ptr %7, align 8, !tbaa !12
  %14 = load ptr, ptr %7, align 8, !tbaa !12
  %15 = load ptr, ptr %7, align 8, !tbaa !12
  %16 = call i64 @strlen(ptr noundef %15) #17
  %17 = getelementptr i8, ptr %14, i64 %16
  %18 = call ptr @pm_encoding_find(ptr noundef %13, ptr noundef %17)
  store ptr %18, ptr %8, align 8, !tbaa !57
  %19 = load ptr, ptr %8, align 8, !tbaa !57
  %20 = icmp eq ptr %19, null
  br i1 %20, label %21, label %22

21:                                               ; preds = %3
  store i32 -1, ptr %4, align 4
  store i32 1, ptr %9, align 4
  br label %157

22:                                               ; preds = %3
  %23 = load i64, ptr %6, align 8, !tbaa !14
  %24 = icmp eq i64 %23, 0
  br i1 %24, label %25, label %26

25:                                               ; preds = %22
  store i32 0, ptr %4, align 4
  store i32 1, ptr %9, align 4
  br label %157

26:                                               ; preds = %22
  call void @llvm.lifetime.start.p0(i64 8, ptr %10) #15
  %27 = load ptr, ptr %8, align 8, !tbaa !57
  %28 = getelementptr inbounds nuw %struct.pm_encoding_t, ptr %27, i32 0, i32 1
  %29 = load ptr, ptr %28, align 8, !tbaa !139
  %30 = load ptr, ptr %5, align 8, !tbaa !12
  %31 = load i64, ptr %6, align 8, !tbaa !14
  %32 = call i64 %29(ptr noundef %30, i64 noundef %31)
  store i64 %32, ptr %10, align 8, !tbaa !14
  %33 = icmp ne i64 %32, 0
  br i1 %33, label %34, label %35

34:                                               ; preds = %26
  br label %58

35:                                               ; preds = %26
  %36 = load ptr, ptr %5, align 8, !tbaa !12
  %37 = load i8, ptr %36, align 1, !tbaa !39
  %38 = zext i8 %37 to i32
  %39 = icmp eq i32 %38, 95
  br i1 %39, label %40, label %41

40:                                               ; preds = %35
  store i64 1, ptr %10, align 8, !tbaa !14
  br label %57

41:                                               ; preds = %35
  %42 = load ptr, ptr %5, align 8, !tbaa !12
  %43 = load i8, ptr %42, align 1, !tbaa !39
  %44 = zext i8 %43 to i32
  %45 = icmp sge i32 %44, 128
  br i1 %45, label %46, label %55

46:                                               ; preds = %41
  %47 = load ptr, ptr %8, align 8, !tbaa !57
  %48 = getelementptr inbounds nuw %struct.pm_encoding_t, ptr %47, i32 0, i32 0
  %49 = load ptr, ptr %48, align 8, !tbaa !141
  %50 = load ptr, ptr %5, align 8, !tbaa !12
  %51 = load i64, ptr %6, align 8, !tbaa !14
  %52 = call i64 %49(ptr noundef %50, i64 noundef %51)
  store i64 %52, ptr %10, align 8, !tbaa !14
  %53 = icmp ugt i64 %52, 0
  br i1 %53, label %54, label %55

54:                                               ; preds = %46
  br label %56

55:                                               ; preds = %46, %41
  store i32 0, ptr %4, align 4
  store i32 1, ptr %9, align 4
  br label %156

56:                                               ; preds = %54
  br label %57

57:                                               ; preds = %56, %40
  br label %58

58:                                               ; preds = %57, %34
  call void @llvm.lifetime.start.p0(i64 8, ptr %11) #15
  %59 = load ptr, ptr %5, align 8, !tbaa !12
  %60 = load i64, ptr %6, align 8, !tbaa !14
  %61 = getelementptr i8, ptr %59, i64 %60
  store ptr %61, ptr %11, align 8, !tbaa !12
  call void @llvm.lifetime.start.p0(i64 4, ptr %12) #15
  %62 = load ptr, ptr %8, align 8, !tbaa !57
  %63 = getelementptr inbounds nuw %struct.pm_encoding_t, ptr %62, i32 0, i32 3
  %64 = load ptr, ptr %63, align 8, !tbaa !142
  %65 = load ptr, ptr %5, align 8, !tbaa !12
  %66 = load ptr, ptr %11, align 8, !tbaa !12
  %67 = load ptr, ptr %5, align 8, !tbaa !12
  %68 = ptrtoint ptr %66 to i64
  %69 = ptrtoint ptr %67 to i64
  %70 = sub i64 %68, %69
  %71 = call zeroext i1 %64(ptr noundef %65, i64 noundef %70)
  %72 = select i1 %71, i32 2, i32 1
  store i32 %72, ptr %12, align 4, !tbaa !52
  %73 = load i64, ptr %10, align 8, !tbaa !14
  %74 = load ptr, ptr %5, align 8, !tbaa !12
  %75 = getelementptr i8, ptr %74, i64 %73
  store ptr %75, ptr %5, align 8, !tbaa !12
  br label %76

76:                                               ; preds = %128, %58
  %77 = load ptr, ptr %5, align 8, !tbaa !12
  %78 = load ptr, ptr %11, align 8, !tbaa !12
  %79 = icmp ult ptr %77, %78
  br i1 %79, label %80, label %129

80:                                               ; preds = %76
  %81 = load ptr, ptr %8, align 8, !tbaa !57
  %82 = getelementptr inbounds nuw %struct.pm_encoding_t, ptr %81, i32 0, i32 2
  %83 = load ptr, ptr %82, align 8, !tbaa !143
  %84 = load ptr, ptr %5, align 8, !tbaa !12
  %85 = load ptr, ptr %11, align 8, !tbaa !12
  %86 = load ptr, ptr %5, align 8, !tbaa !12
  %87 = ptrtoint ptr %85 to i64
  %88 = ptrtoint ptr %86 to i64
  %89 = sub i64 %87, %88
  %90 = call i64 %83(ptr noundef %84, i64 noundef %89)
  store i64 %90, ptr %10, align 8, !tbaa !14
  %91 = icmp ne i64 %90, 0
  br i1 %91, label %92, label %96

92:                                               ; preds = %80
  %93 = load i64, ptr %10, align 8, !tbaa !14
  %94 = load ptr, ptr %5, align 8, !tbaa !12
  %95 = getelementptr i8, ptr %94, i64 %93
  store ptr %95, ptr %5, align 8, !tbaa !12
  br label %128

96:                                               ; preds = %80
  %97 = load ptr, ptr %5, align 8, !tbaa !12
  %98 = load i8, ptr %97, align 1, !tbaa !39
  %99 = zext i8 %98 to i32
  %100 = icmp eq i32 %99, 95
  br i1 %100, label %101, label %104

101:                                              ; preds = %96
  %102 = load ptr, ptr %5, align 8, !tbaa !12
  %103 = getelementptr i8, ptr %102, i32 1
  store ptr %103, ptr %5, align 8, !tbaa !12
  br label %127

104:                                              ; preds = %96
  %105 = load ptr, ptr %5, align 8, !tbaa !12
  %106 = load i8, ptr %105, align 1, !tbaa !39
  %107 = zext i8 %106 to i32
  %108 = icmp sge i32 %107, 128
  br i1 %108, label %109, label %125

109:                                              ; preds = %104
  %110 = load ptr, ptr %8, align 8, !tbaa !57
  %111 = getelementptr inbounds nuw %struct.pm_encoding_t, ptr %110, i32 0, i32 0
  %112 = load ptr, ptr %111, align 8, !tbaa !141
  %113 = load ptr, ptr %5, align 8, !tbaa !12
  %114 = load ptr, ptr %11, align 8, !tbaa !12
  %115 = load ptr, ptr %5, align 8, !tbaa !12
  %116 = ptrtoint ptr %114 to i64
  %117 = ptrtoint ptr %115 to i64
  %118 = sub i64 %116, %117
  %119 = call i64 %112(ptr noundef %113, i64 noundef %118)
  store i64 %119, ptr %10, align 8, !tbaa !14
  %120 = icmp ugt i64 %119, 0
  br i1 %120, label %121, label %125

121:                                              ; preds = %109
  %122 = load i64, ptr %10, align 8, !tbaa !14
  %123 = load ptr, ptr %5, align 8, !tbaa !12
  %124 = getelementptr i8, ptr %123, i64 %122
  store ptr %124, ptr %5, align 8, !tbaa !12
  br label %126

125:                                              ; preds = %109, %104
  br label %129

126:                                              ; preds = %121
  br label %127

127:                                              ; preds = %126, %101
  br label %128

128:                                              ; preds = %127, %92
  br label %76, !llvm.loop !144

129:                                              ; preds = %125, %76
  %130 = load ptr, ptr %5, align 8, !tbaa !12
  %131 = load i8, ptr %130, align 1, !tbaa !39
  %132 = zext i8 %131 to i32
  %133 = icmp eq i32 %132, 33
  br i1 %133, label %144, label %134

134:                                              ; preds = %129
  %135 = load ptr, ptr %5, align 8, !tbaa !12
  %136 = load i8, ptr %135, align 1, !tbaa !39
  %137 = zext i8 %136 to i32
  %138 = icmp eq i32 %137, 63
  br i1 %138, label %144, label %139

139:                                              ; preds = %134
  %140 = load ptr, ptr %5, align 8, !tbaa !12
  %141 = load i8, ptr %140, align 1, !tbaa !39
  %142 = zext i8 %141 to i32
  %143 = icmp eq i32 %142, 61
  br i1 %143, label %144, label %147

144:                                              ; preds = %139, %134, %129
  %145 = load ptr, ptr %5, align 8, !tbaa !12
  %146 = getelementptr i8, ptr %145, i32 1
  store ptr %146, ptr %5, align 8, !tbaa !12
  store i32 3, ptr %12, align 4, !tbaa !52
  br label %147

147:                                              ; preds = %144, %139
  %148 = load ptr, ptr %5, align 8, !tbaa !12
  %149 = load ptr, ptr %11, align 8, !tbaa !12
  %150 = icmp eq ptr %148, %149
  br i1 %150, label %151, label %153

151:                                              ; preds = %147
  %152 = load i32, ptr %12, align 4, !tbaa !52
  br label %154

153:                                              ; preds = %147
  br label %154

154:                                              ; preds = %153, %151
  %155 = phi i32 [ %152, %151 ], [ 0, %153 ]
  store i32 %155, ptr %4, align 4
  store i32 1, ptr %9, align 4
  call void @llvm.lifetime.end.p0(i64 4, ptr %12) #15
  call void @llvm.lifetime.end.p0(i64 8, ptr %11) #15
  br label %156

156:                                              ; preds = %154, %55
  call void @llvm.lifetime.end.p0(i64 8, ptr %10) #15
  br label %157

157:                                              ; preds = %156, %25, %21
  call void @llvm.lifetime.end.p0(i64 8, ptr %8) #15
  %158 = load i32, ptr %4, align 4
  ret i32 %158
}