; Function Attrs: nounwind sspstrong uwtable
define hidden range(i32 -1, 4) i32 @pm_slice_type(ptr noundef %0, i64 noundef %1, ptr noundef %2) local_unnamed_addr #1 {
  %4 = tail call i64 @strlen(ptr noundef nonnull dereferenceable(1) %2) #33
  %5 = getelementptr i8, ptr %2, i64 %4
  %6 = tail call ptr @pm_encoding_find(ptr noundef nonnull %2, ptr noundef %5) #31
  %7 = icmp eq ptr %6, null
  br i1 %7, label %54, label %8

8:                                                ; preds = %3
  %9 = icmp eq i64 %1, 0
  br i1 %9, label %54, label %10

10:                                               ; preds = %8
  %11 = getelementptr inbounds nuw i8, ptr %6, i64 8
  %12 = load ptr, ptr %11, align 8, !tbaa !147
  %13 = tail call i64 %12(ptr noundef %0, i64 noundef %1) #31
  %.not = icmp eq i64 %13, 0
  br i1 %.not, label %14, label %22

14:                                               ; preds = %10
  %15 = load i8, ptr %0, align 1, !tbaa !65
  %16 = icmp eq i8 %15, 95
  br i1 %16, label %22, label %17

17:                                               ; preds = %14
  %18 = icmp slt i8 %15, 0
  br i1 %18, label %19, label %54

19:                                               ; preds = %17
  %20 = load ptr, ptr %6, align 8, !tbaa !149
  %21 = tail call i64 %20(ptr noundef nonnull %0, i64 noundef %1) #31
  %.not58 = icmp eq i64 %21, 0
  br i1 %.not58, label %54, label %22

22:                                               ; preds = %14, %19, %10
  %.046 = phi i64 [ %13, %10 ], [ %21, %19 ], [ 1, %14 ]
  %23 = getelementptr i8, ptr %0, i64 %1
  %24 = getelementptr inbounds nuw i8, ptr %6, i64 24
  %25 = load ptr, ptr %24, align 8, !tbaa !150
  %26 = ptrtoint ptr %23 to i64
  %27 = tail call zeroext i1 %25(ptr noundef %0, i64 noundef %1) #31
  %28 = select i1 %27, i32 2, i32 1
  %29 = getelementptr i8, ptr %0, i64 %.046
  %30 = icmp ult ptr %29, %23
  br i1 %30, label %.lr.ph, label %thread-pre-split

.lr.ph:                                           ; preds = %22
  %31 = getelementptr inbounds nuw i8, ptr %6, i64 16
  br label %32

32:                                               ; preds = %.lr.ph, %45
  %.04763 = phi ptr [ %29, %.lr.ph ], [ %46, %45 ]
  %33 = load ptr, ptr %31, align 8, !tbaa !151
  %34 = ptrtoint ptr %.04763 to i64
  %35 = sub i64 %26, %34
  %36 = tail call i64 %33(ptr noundef %.04763, i64 noundef %35) #31
  %.not59 = icmp eq i64 %36, 0
  br i1 %.not59, label %37, label %45

37:                                               ; preds = %32
  %38 = load i8, ptr %.04763, align 1, !tbaa !65
  %39 = icmp eq i8 %38, 95
  br i1 %39, label %45, label %40

40:                                               ; preds = %37
  %41 = icmp slt i8 %38, 0
  br i1 %41, label %42, label %.loopexit

42:                                               ; preds = %40
  %43 = load ptr, ptr %6, align 8, !tbaa !149
  %44 = tail call i64 %43(ptr noundef nonnull %.04763, i64 noundef %35) #31
  %.not60 = icmp eq i64 %44, 0
  br i1 %.not60, label %thread-pre-split, label %45

45:                                               ; preds = %42, %37, %32
  %.sink = phi i64 [ %36, %32 ], [ 1, %37 ], [ %44, %42 ]
  %46 = getelementptr i8, ptr %.04763, i64 %.sink
  %47 = icmp ult ptr %46, %23
  br i1 %47, label %32, label %thread-pre-split, !llvm.loop !152

thread-pre-split:                                 ; preds = %42, %45, %22
  %.047.lcssa = phi ptr [ %29, %22 ], [ %46, %45 ], [ %.04763, %42 ]
  %.pr = load i8, ptr %.047.lcssa, align 1, !tbaa !65
  br label %.loopexit

.loopexit:                                        ; preds = %40, %thread-pre-split
  %.04762 = phi ptr [ %.047.lcssa, %thread-pre-split ], [ %.04763, %40 ]
  %48 = phi i8 [ %.pr, %thread-pre-split ], [ %38, %40 ]
  switch i8 %48, label %51 [
    i8 33, label %49
    i8 63, label %49
    i8 61, label %49
  ]

49:                                               ; preds = %.loopexit, %.loopexit, %.loopexit
  %50 = getelementptr i8, ptr %.04762, i64 1
  br label %51

51:                                               ; preds = %.loopexit, %49
  %.2 = phi ptr [ %50, %49 ], [ %.04762, %.loopexit ]
  %.0 = phi i32 [ 3, %49 ], [ %28, %.loopexit ]
  %52 = icmp eq ptr %.2, %23
  %53 = select i1 %52, i32 %.0, i32 0
  br label %54

54:                                               ; preds = %51, %19, %17, %8, %3
  %.045 = phi i32 [ -1, %3 ], [ 0, %8 ], [ %53, %51 ], [ 0, %19 ], [ 0, %17 ]
  ret i32 %.045
}